target datalayout = "e-m:e-p270:32:32-p271:32:32-p272:64:64-i64:64-i128:128-f80:128-n8:16:32:64-S128"
target triple = "x86_64-pc-linux-gnu"

%struct.CVodeMemRec = type { ptr, double, ptr, ptr, i32, i32, double, double, ptr, i32, i32, ptr, ptr, i32, i32, ptr, i32, i32, double, double, ptr, i32, i32, i32, i32, ptr, ptr, ptr, i32, i32, ptr, ptr, ptr, i32, double, i32, i32, double, ptr, ptr, ptr, i32, ptr, ptr, i32, i32, i32, double, ptr, ptr, ptr, [13 x ptr], ptr, ptr, ptr, ptr, ptr, ptr, ptr, ptr, ptr, [13 x ptr], ptr, ptr, ptr, ptr, [13 x ptr], ptr, ptr, ptr, ptr, ptr, i32, [13 x ptr], ptr, ptr, ptr, ptr, ptr, i32, i32, double, i32, i32, i32, i32, i32, double, double, double, double, double, double, double, double, [14 x double], [6 x double], [13 x double], double, double, double, double, double, double, double, double, i32, double, double, i32, double, double, ptr, i32, i64, i32, i32, i32, double, double, double, double, double, double, double, double, double, double, double, double, i64, i32, i64, i64, i64, i64, i64, i64, i64, i64, i64, ptr, i64, i64, ptr, i64, i64, ptr, i64, i64, i64, i64, i64, i64, i32, double, double, double, i64, i64, i64, i64, i64, i64, ptr, i32, ptr, i32, ptr, i32, ptr, i32, i32, i64, i32, ptr, i32, ptr, ptr, ptr, ptr, ptr, ptr, i32, i32, ptr, ptr, ptr, ptr, ptr, i64, double, i32, i32, i64, double, double, double, i32, i32, double, i32, i32, i32, i32, i32, i32, i32, i32, i32, i32, i32, i32, i32, i32, i32, i32, ptr, i64, i32, [6 x [4 x double]], i32, i64, ptr, i32, ptr, ptr, double, double, double, ptr, ptr, ptr, double, double, i32, i32, i64, ptr, i32, ptr, i32, i32, [13 x double], ptr, ptr, ptr, i32, ptr, i32 }
%struct.CVadjMemRec = type { double, double, i32, i32, double, i32, double, ptr, i32, ptr, i32, ptr, i32, ptr, i64, i64, ptr, i64, i32, ptr, ptr, ptr, ptr, i32, i32, i32, i32, [13 x ptr], [13 x ptr], [13 x double], ptr, ptr }
%struct.CVadjCheckPointRec = type { ptr, ptr, double, double, i64, i32, double }
%struct.CVckpntMemRec = type { double, double, [13 x ptr], i32, [13 x ptr], i32, i32, [13 x ptr], i32, [13 x ptr], i32, i64, double, i32, i32, i32, i32, double, double, double, double, double, double, [14 x double], [6 x double], [13 x double], double, ptr }

@.str = private unnamed_addr constant [118 x i8] c"generated/home/dtcxzyw/WorkSpace/Projects/compilers/llvm-opt-benchmark/bench/sundials/sundials/src/cvodes/cvodea_io.c\00", align 1
@.str.1 = private unnamed_addr constant [26 x i8] c"cvode_mem = NULL illegal.\00", align 1
@.str.2 = private unnamed_addr constant [55 x i8] c"Illegal attempt to call before calling CVodeAdjMalloc.\00", align 1
@__func__.CVodeGetAdjCheckPointsInfo = private unnamed_addr constant [27 x i8] c"CVodeGetAdjCheckPointsInfo\00", align 1

; Function Attrs: nounwind uwtable
define i32 @CVodeGetAdjCheckPointsInfo(ptr noundef %0, ptr noundef %1) #0 {
  %3 = alloca i32, align 4
  %4 = alloca ptr, align 8
  %5 = alloca ptr, align 8
  %6 = alloca ptr, align 8
  %7 = alloca ptr, align 8
  %8 = alloca ptr, align 8
  %9 = alloca i32, align 4
  store ptr %0, ptr %4, align 8
  store ptr %1, ptr %5, align 8
  %10 = load ptr, ptr %4, align 8
  %11 = icmp eq ptr %10, null
  br i1 %11, label %12, label %13

12:                                               ; preds = %2
  call void (ptr, i32, i32, ptr, ptr, ptr, ...) @cvProcessError(ptr noundef null, i32 noundef -21, i32 noundef 630, ptr noundef @__func__.CVodeGetAdjCheckPointsInfo, ptr noundef @.str, ptr noundef @.str.1)
  store i32 -21, ptr %3, align 4
  br label %92

13:                                               ; preds = %2
  %14 = load ptr, ptr %4, align 8
  store ptr %14, ptr %6, align 8
  %15 = load ptr, ptr %6, align 8
  %16 = getelementptr inbounds %struct.CVodeMemRec, ptr %15, i32 0, i32 249
  %17 = load i32, ptr %16, align 8
  %18 = icmp eq i32 %17, 0
  br i1 %18, label %19, label %21

19:                                               ; preds = %13
  %20 = load ptr, ptr %6, align 8
  call void (ptr, i32, i32, ptr, ptr, ptr, ...) @cvProcessError(ptr noundef %20, i32 noundef -101, i32 noundef 638, ptr noundef @__func__.CVodeGetAdjCheckPointsInfo, ptr noundef @.str, ptr noundef @.str.2)
  store i32 -101, ptr %3, align 4
  br label %92

21:                                               ; preds = %13
  %22 = load ptr, ptr %6, align 8
  %23 = getelementptr inbounds %struct.CVodeMemRec, ptr %22, i32 0, i32 248
  %24 = load ptr, ptr %23, align 8
  store ptr %24, ptr %7, align 8
  %25 = load ptr, ptr %7, align 8
  %26 = getelementptr inbounds %struct.CVadjMemRec, ptr %25, i32 0, i32 11
  %27 = load ptr, ptr %26, align 8
  store ptr %27, ptr %8, align 8
  store i32 0, ptr %9, align 4
  br label %28

28:                                               ; preds = %31, %21
  %29 = load ptr, ptr %8, align 8
  %30 = icmp ne ptr %29, null
  br i1 %30, label %31, label %91

31:                                               ; preds = %28
  %32 = load ptr, ptr %8, align 8
  %33 = load ptr, ptr %5, align 8
  %34 = load i32, ptr %9, align 4
  %35 = sext i32 %34 to i64
  %36 = getelementptr inbounds %struct.CVadjCheckPointRec, ptr %33, i64 %35
  %37 = getelementptr inbounds %struct.CVadjCheckPointRec, ptr %36, i32 0, i32 0
  store ptr %32, ptr %37, align 8
  %38 = load ptr, ptr %8, align 8
  %39 = getelementptr inbounds %struct.CVckpntMemRec, ptr %38, i32 0, i32 27
  %40 = load ptr, ptr %39, align 8
  %41 = load ptr, ptr %5, align 8
  %42 = load i32, ptr %9, align 4
  %43 = sext i32 %42 to i64
  %44 = getelementptr inbounds %struct.CVadjCheckPointRec, ptr %41, i64 %43
  %45 = getelementptr inbounds %struct.CVadjCheckPointRec, ptr %44, i32 0, i32 1
  store ptr %40, ptr %45, align 8
  %46 = load ptr, ptr %8, align 8
  %47 = getelementptr inbounds %struct.CVckpntMemRec, ptr %46, i32 0, i32 0
  %48 = load double, ptr %47, align 8
  %49 = load ptr, ptr %5, align 8
  %50 = load i32, ptr %9, align 4
  %51 = sext i32 %50 to i64
  %52 = getelementptr inbounds %struct.CVadjCheckPointRec, ptr %49, i64 %51
  %53 = getelementptr inbounds %struct.CVadjCheckPointRec, ptr %52, i32 0, i32 2
  store double %48, ptr %53, align 8
  %54 = load ptr, ptr %8, align 8
  %55 = getelementptr inbounds %struct.CVckpntMemRec, ptr %54, i32 0, i32 1
  %56 = load double, ptr %55, align 8
  %57 = load ptr, ptr %5, align 8
  %58 = load i32, ptr %9, align 4
  %59 = sext i32 %58 to i64
  %60 = getelementptr inbounds %struct.CVadjCheckPointRec, ptr %57, i64 %59
  %61 = getelementptr inbounds %struct.CVadjCheckPointRec, ptr %60, i32 0, i32 3
  store double %56, ptr %61, align 8
  %62 = load ptr, ptr %8, align 8
  %63 = getelementptr inbounds %struct.CVckpntMemRec, ptr %62, i32 0, i32 11
  %64 = load i64, ptr %63, align 8
  %65 = load ptr, ptr %5, align 8
  %66 = load i32, ptr %9, align 4
  %67 = sext i32 %66 to i64
  %68 = getelementptr inbounds %struct.CVadjCheckPointRec, ptr %65, i64 %67
  %69 = getelementptr inbounds %struct.CVadjCheckPointRec, ptr %68, i32 0, i32 4
  store i64 %64, ptr %69, align 8
  %70 = load ptr, ptr %8, align 8
  %71 = getelementptr inbounds %struct.CVckpntMemRec, ptr %70, i32 0, i32 13
  %72 = load i32, ptr %71, align 8
  %73 = load ptr, ptr %5, align 8
  %74 = load i32, ptr %9, align 4
  %75 = sext i32 %74 to i64
  %76 = getelementptr inbounds %struct.CVadjCheckPointRec, ptr %73, i64 %75
  %77 = getelementptr inbounds %struct.CVadjCheckPointRec, ptr %76, i32 0, i32 5
  store i32 %72, ptr %77, align 8
  %78 = load ptr, ptr %8, align 8
  %79 = getelementptr inbounds %struct.CVckpntMemRec, ptr %78, i32 0, i32 18
  %80 = load double, ptr %79, align 8
  %81 = load ptr, ptr %5, align 8
  %82 = load i32, ptr %9, align 4
  %83 = sext i32 %82 to i64
  %84 = getelementptr inbounds %struct.CVadjCheckPointRec, ptr %81, i64 %83
  %85 = getelementptr inbounds %struct.CVadjCheckPointRec, ptr %84, i32 0, i32 6
  store double %80, ptr %85, align 8
  %86 = load ptr, ptr %8, align 8
  %87 = getelementptr inbounds %struct.CVckpntMemRec, ptr %86, i32 0, i32 27
  %88 = load ptr, ptr %87, align 8
  store ptr %88, ptr %8, align 8
  %89 = load i32, ptr %9, align 4
  %90 = add nsw i32 %89, 1
  store i32 %90, ptr %9, align 4
  br label %28

91:                                               ; preds = %28
  store i32 0, ptr %3, align 4
  br label %92

92:                                               ; preds = %91, %19, %12
  %93 = load i32, ptr %3, align 4
  ret i32 %93
}